target datalayout = "e-m:e-p270:32:32-p271:32:32-p272:64:64-i64:64-i128:128-f80:128-n8:16:32:64-S128"
target triple = "x86_64-pc-linux-gnu"

%struct._generic_SUNLinearSolver = type { ptr, ptr, ptr }
%struct._generic_SUNLinearSolver_Ops = type { ptr, ptr, ptr, ptr, ptr, ptr, ptr, ptr, ptr, ptr, ptr, ptr, ptr, ptr, ptr }
%struct.KINMemRec = type { ptr, double, ptr, ptr, double, double, i32, i64, i64, i64, i64, i32, i32, i32, i32, i32, i32, i32, i32, double, double, double, double, double, double, double, double, double, i32, double, i64, i64, i64, i64, i64, i64, i64, ptr, ptr, ptr, ptr, ptr, ptr, ptr, ptr, ptr, ptr, ptr, i32, i32, double, ptr, ptr, ptr, ptr, ptr, double, ptr, ptr, ptr, ptr, i64, i64, i32, ptr, ptr, i32, ptr, ptr, i64, i64, i64, i64, ptr, ptr, ptr, ptr, i32, ptr, double, double, double, double, double, i32, double, double, double, i32 }
%struct._generic_N_Vector = type { ptr, ptr, ptr }
%struct._generic_N_Vector_Ops = type { ptr, ptr, ptr, ptr, ptr, ptr, ptr, ptr, ptr, ptr, ptr, ptr, ptr, ptr, ptr, ptr, ptr, ptr, ptr, ptr, ptr, ptr, ptr, ptr, ptr, ptr, ptr, ptr, ptr, ptr, ptr, ptr, ptr, ptr, ptr, ptr, ptr, ptr, ptr, ptr, ptr, ptr, ptr, ptr, ptr, ptr, ptr, ptr, ptr, ptr, ptr, ptr, ptr, ptr, ptr, ptr }
%struct.KINLsMemRec = type { i32, i32, i32, ptr, ptr, ptr, ptr, double, i64, i64, i64, i64, i64, i64, i64, i32, i32, ptr, ptr, ptr, ptr, i32, ptr, ptr, ptr }

@.str = private unnamed_addr constant [118 x i8] c"generated/home/dtcxzyw/WorkSpace/Projects/compilers/llvm-opt-benchmark/bench/sundials/sundials/src/kinsol/kinsol_ls.c\00", align 1
@.str.1 = private unnamed_addr constant [23 x i8] c"KINSOL memory is NULL.\00", align 1
@__func__.KINGetLinWorkSpace = private unnamed_addr constant [19 x i8] c"KINGetLinWorkSpace\00", align 1
@.str.26 = private unnamed_addr constant [30 x i8] c"Linear solver memory is NULL.\00", align 1

; Function Attrs: nounwind uwtable
define i32 @kinLs_AccessLMem(ptr noundef %0, ptr noundef %1, ptr noundef %2, ptr noundef %3) #0 {
  %5 = alloca i32, align 4
  %6 = alloca ptr, align 8
  %7 = alloca ptr, align 8
  %8 = alloca ptr, align 8
  %9 = alloca ptr, align 8
  store ptr %0, ptr %6, align 8, !tbaa !3
  store ptr %1, ptr %7, align 8, !tbaa !105
  store ptr %2, ptr %8, align 8, !tbaa !107
  store ptr %3, ptr %9, align 8, !tbaa !109
  %10 = load ptr, ptr %6, align 8, !tbaa !3
  %11 = icmp eq ptr %10, null
  br i1 %11, label %12, label %14

12:                                               ; preds = %4
  %13 = load ptr, ptr %7, align 8, !tbaa !105
  call void (ptr, i32, i32, ptr, ptr, ptr, ...) @KINProcessError(ptr noundef null, i32 noundef -1, i32 noundef 1399, ptr noundef %13, ptr noundef @.str, ptr noundef @.str.1)
  store i32 -1, ptr %5, align 4
  br label %32

14:                                               ; preds = %4
  %15 = load ptr, ptr %6, align 8, !tbaa !3
  %16 = load ptr, ptr %8, align 8, !tbaa !107
  store ptr %15, ptr %16, align 8, !tbaa !11
  %17 = load ptr, ptr %8, align 8, !tbaa !107
  %18 = load ptr, ptr %17, align 8, !tbaa !11
  %19 = getelementptr inbounds nuw %struct.KINMemRec, ptr %18, i32 0, i32 78
  %20 = load ptr, ptr %19, align 8, !tbaa !66
  %21 = icmp eq ptr %20, null
  br i1 %21, label %22, label %26

22:                                               ; preds = %14
  %23 = load ptr, ptr %8, align 8, !tbaa !107
  %24 = load ptr, ptr %23, align 8, !tbaa !11
  %25 = load ptr, ptr %7, align 8, !tbaa !105
  call void (ptr, i32, i32, ptr, ptr, ptr, ...) @KINProcessError(ptr noundef %24, i32 noundef -2, i32 noundef 1406, ptr noundef %25, ptr noundef @.str, ptr noundef @.str.26)
  store i32 -2, ptr %5, align 4
  br label %32

26:                                               ; preds = %14
  %27 = load ptr, ptr %8, align 8, !tbaa !107
  %28 = load ptr, ptr %27, align 8, !tbaa !11
  %29 = getelementptr inbounds nuw %struct.KINMemRec, ptr %28, i32 0, i32 78
  %30 = load ptr, ptr %29, align 8, !tbaa !66
  %31 = load ptr, ptr %9, align 8, !tbaa !109
  store ptr %30, ptr %31, align 8, !tbaa !45
  store i32 0, ptr %5, align 4
  br label %32

32:                                               ; preds = %26, %22, %12
  %33 = load i32, ptr %5, align 4
  ret i32 %33
}

; Function Attrs: nounwind uwtable
define i32 @KINGetLinWorkSpace(ptr noundef %0, ptr noundef %1, ptr noundef %2) #0 {
  %4 = alloca i32, align 4
  %5 = alloca ptr, align 8
  %6 = alloca ptr, align 8
  %7 = alloca ptr, align 8
  %8 = alloca ptr, align 8
  %9 = alloca ptr, align 8
  %10 = alloca i64, align 8
  %11 = alloca i64, align 8
  %12 = alloca i64, align 8
  %13 = alloca i64, align 8
  %14 = alloca i32, align 4
  %15 = alloca i32, align 4
  store ptr %0, ptr %5, align 8, !tbaa !3
  store ptr %1, ptr %6, align 8, !tbaa !113
  store ptr %2, ptr %7, align 8, !tbaa !113
  call void @llvm.lifetime.start.p0(i64 8, ptr %8) #7
  call void @llvm.lifetime.start.p0(i64 8, ptr %9) #7
  call void @llvm.lifetime.start.p0(i64 8, ptr %10) #7
  call void @llvm.lifetime.start.p0(i64 8, ptr %11) #7
  call void @llvm.lifetime.start.p0(i64 8, ptr %12) #7
  call void @llvm.lifetime.start.p0(i64 8, ptr %13) #7
  call void @llvm.lifetime.start.p0(i64 4, ptr %14) #7
  %16 = load ptr, ptr %5, align 8, !tbaa !3
  %17 = call i32 @kinLs_AccessLMem(ptr noundef %16, ptr noundef @__func__.KINGetLinWorkSpace, ptr noundef %8, ptr noundef %9)
  store i32 %17, ptr %14, align 4, !tbaa !20
  %18 = load i32, ptr %14, align 4, !tbaa !20
  %19 = icmp ne i32 %18, 0
  br i1 %19, label %20, label %22

20:                                               ; preds = %3
  %21 = load i32, ptr %14, align 4, !tbaa !20
  store i32 %21, ptr %4, align 4
  store i32 1, ptr %15, align 4
  br label %72

22:                                               ; preds = %3
  %23 = load ptr, ptr %6, align 8, !tbaa !113
  store i64 1, ptr %23, align 8, !tbaa !114
  %24 = load ptr, ptr %7, align 8, !tbaa !113
  store i64 21, ptr %24, align 8, !tbaa !114
  %25 = load ptr, ptr %8, align 8, !tbaa !11
  %26 = getelementptr inbounds nuw %struct.KINMemRec, ptr %25, i32 0, i32 45
  %27 = load ptr, ptr %26, align 8, !tbaa !22
  %28 = getelementptr inbounds nuw %struct._generic_N_Vector, ptr %27, i32 0, i32 1
  %29 = load ptr, ptr %28, align 8, !tbaa !31
  %30 = getelementptr inbounds nuw %struct._generic_N_Vector_Ops, ptr %29, i32 0, i32 4
  %31 = load ptr, ptr %30, align 8, !tbaa !115
  %32 = icmp ne ptr %31, null
  br i1 %32, label %33, label %45

33:                                               ; preds = %22
  %34 = load ptr, ptr %8, align 8, !tbaa !11
  %35 = getelementptr inbounds nuw %struct.KINMemRec, ptr %34, i32 0, i32 45
  %36 = load ptr, ptr %35, align 8, !tbaa !22
  call void @N_VSpace(ptr noundef %36, ptr noundef %10, ptr noundef %11)
  %37 = load i64, ptr %10, align 8, !tbaa !114
  %38 = load ptr, ptr %6, align 8, !tbaa !113
  %39 = load i64, ptr %38, align 8, !tbaa !114
  %40 = add nsw i64 %39, %37
  store i64 %40, ptr %38, align 8, !tbaa !114
  %41 = load i64, ptr %11, align 8, !tbaa !114
  %42 = load ptr, ptr %7, align 8, !tbaa !113
  %43 = load i64, ptr %42, align 8, !tbaa !114
  %44 = add nsw i64 %43, %41
  store i64 %44, ptr %42, align 8, !tbaa !114
  br label %45

45:                                               ; preds = %33, %22
  %46 = load ptr, ptr %9, align 8, !tbaa !45
  %47 = getelementptr inbounds nuw %struct.KINLsMemRec, ptr %46, i32 0, i32 5
  %48 = load ptr, ptr %47, align 8, !tbaa !47
  %49 = getelementptr inbounds nuw %struct._generic_SUNLinearSolver, ptr %48, i32 0, i32 1
  %50 = load ptr, ptr %49, align 8, !tbaa !13
  %51 = getelementptr inbounds nuw %struct._generic_SUNLinearSolver_Ops, ptr %50, i32 0, i32 12
  %52 = load ptr, ptr %51, align 8, !tbaa !116
  %53 = icmp ne ptr %52, null
  br i1 %53, label %54, label %71

54:                                               ; preds = %45
  %55 = load ptr, ptr %9, align 8, !tbaa !45
  %56 = getelementptr inbounds nuw %struct.KINLsMemRec, ptr %55, i32 0, i32 5
  %57 = load ptr, ptr %56, align 8, !tbaa !47
  %58 = call i32 @SUNLinSolSpace(ptr noundef %57, ptr noundef %12, ptr noundef %13)
  store i32 %58, ptr %14, align 4, !tbaa !20
  %59 = load i32, ptr %14, align 4, !tbaa !20
  %60 = icmp eq i32 %59, 0
  br i1 %60, label %61, label %70

61:                                               ; preds = %54
  %62 = load i64, ptr %12, align 8, !tbaa !114
  %63 = load ptr, ptr %6, align 8, !tbaa !113
  %64 = load i64, ptr %63, align 8, !tbaa !114
  %65 = add nsw i64 %64, %62
  store i64 %65, ptr %63, align 8, !tbaa !114
  %66 = load i64, ptr %13, align 8, !tbaa !114
  %67 = load ptr, ptr %7, align 8, !tbaa !113
  %68 = load i64, ptr %67, align 8, !tbaa !114
  %69 = add nsw i64 %68, %66
  store i64 %69, ptr %67, align 8, !tbaa !114
  br label %70

70:                                               ; preds = %61, %54
  br label %71

71:                                               ; preds = %70, %45
  store i32 0, ptr %4, align 4
  store i32 1, ptr %15, align 4
  br label %72

72:                                               ; preds = %71, %20
  call void @llvm.lifetime.end.p0(i64 4, ptr %14) #7
  call void @llvm.lifetime.end.p0(i64 8, ptr %13) #7
  call void @llvm.lifetime.end.p0(i64 8, ptr %12) #7
  call void @llvm.lifetime.end.p0(i64 8, ptr %11) #7
  call void @llvm.lifetime.end.p0(i64 8, ptr %10) #7
  call void @llvm.lifetime.end.p0(i64 8, ptr %9) #7
  call void @llvm.lifetime.end.p0(i64 8, ptr %8) #7
  %73 = load i32, ptr %4, align 4
  ret i32 %73
}