; Function Attrs: nounwind uwtable
define range(i32 -2, 1) i32 @KINGetLinWorkSpace(ptr noundef %0, ptr noundef captures(none) %1, ptr noundef captures(none) %2) local_unnamed_addr #0 {
  %4 = alloca i64, align 8
  %5 = alloca i64, align 8
  %6 = alloca i64, align 8
  %7 = alloca i64, align 8
  call void @llvm.lifetime.start.p0(i64 8, ptr nonnull %4) #13
  call void @llvm.lifetime.start.p0(i64 8, ptr nonnull %5) #13
  call void @llvm.lifetime.start.p0(i64 8, ptr nonnull %6) #13
  call void @llvm.lifetime.start.p0(i64 8, ptr nonnull %7) #13
  %8 = icmp eq ptr %0, null
  br i1 %8, label %9, label %10

9:                                                ; preds = %3
  tail call void (ptr, i32, i32, ptr, ptr, ptr, ...) @KINProcessError(ptr noundef null, i32 noundef -1, i32 noundef 1399, ptr noundef nonnull @__func__.KINGetLinWorkSpace, ptr noundef nonnull @.str, ptr noundef nonnull @.str.1) #13
  br label %kinLs_AccessLMem.exit.thread

10:                                               ; preds = %3
  %11 = getelementptr inbounds nuw i8, ptr %0, i64 584
  %12 = load ptr, ptr %11, align 8, !tbaa !55
  %13 = icmp eq ptr %12, null
  br i1 %13, label %14, label %kinLs_AccessLMem.exit

14:                                               ; preds = %10
  tail call void (ptr, i32, i32, ptr, ptr, ptr, ...) @KINProcessError(ptr noundef nonnull %0, i32 noundef -2, i32 noundef 1406, ptr noundef nonnull @__func__.KINGetLinWorkSpace, ptr noundef nonnull @.str, ptr noundef nonnull @.str.26) #13
  br label %kinLs_AccessLMem.exit.thread

kinLs_AccessLMem.exit:                            ; preds = %10
  store i64 1, ptr %1, align 8, !tbaa !99
  store i64 21, ptr %2, align 8, !tbaa !99
  %15 = getelementptr inbounds nuw i8, ptr %0, i64 328
  %16 = load ptr, ptr %15, align 8, !tbaa !13
  %17 = getelementptr inbounds nuw i8, ptr %16, i64 8
  %18 = load ptr, ptr %17, align 8, !tbaa !23
  %19 = getelementptr inbounds nuw i8, ptr %18, i64 32
  %20 = load ptr, ptr %19, align 8, !tbaa !100
  %.not11 = icmp eq ptr %20, null
  br i1 %.not11, label %28, label %21

21:                                               ; preds = %kinLs_AccessLMem.exit
  call void @N_VSpace(ptr noundef nonnull %16, ptr noundef nonnull %4, ptr noundef nonnull %5) #13
  %22 = load i64, ptr %4, align 8, !tbaa !99
  %23 = load i64, ptr %1, align 8, !tbaa !99
  %24 = add nsw i64 %23, %22
  store i64 %24, ptr %1, align 8, !tbaa !99
  %25 = load i64, ptr %5, align 8, !tbaa !99
  %26 = load i64, ptr %2, align 8, !tbaa !99
  %27 = add nsw i64 %26, %25
  store i64 %27, ptr %2, align 8, !tbaa !99
  br label %28

28:                                               ; preds = %21, %kinLs_AccessLMem.exit
  %29 = getelementptr inbounds nuw i8, ptr %12, i64 32
  %30 = load ptr, ptr %29, align 8, !tbaa !37
  %31 = getelementptr inbounds nuw i8, ptr %30, i64 8
  %32 = load ptr, ptr %31, align 8, !tbaa !3
  %33 = getelementptr inbounds nuw i8, ptr %32, i64 96
  %34 = load ptr, ptr %33, align 8, !tbaa !101
  %.not12 = icmp eq ptr %34, null
  br i1 %.not12, label %kinLs_AccessLMem.exit.thread, label %35

35:                                               ; preds = %28
  %36 = call i32 @SUNLinSolSpace(ptr noundef nonnull %30, ptr noundef nonnull %6, ptr noundef nonnull %7) #13
  %37 = icmp eq i32 %36, 0
  br i1 %37, label %38, label %kinLs_AccessLMem.exit.thread

38:                                               ; preds = %35
  %39 = load i64, ptr %6, align 8, !tbaa !99
  %40 = load i64, ptr %1, align 8, !tbaa !99
  %41 = add nsw i64 %40, %39
  store i64 %41, ptr %1, align 8, !tbaa !99
  %42 = load i64, ptr %7, align 8, !tbaa !99
  %43 = load i64, ptr %2, align 8, !tbaa !99
  %44 = add nsw i64 %43, %42
  store i64 %44, ptr %2, align 8, !tbaa !99
  br label %kinLs_AccessLMem.exit.thread

kinLs_AccessLMem.exit.thread:                     ; preds = %14, %9, %28, %38, %35
  %.0 = phi i32 [ 0, %35 ], [ 0, %38 ], [ 0, %28 ], [ -2, %14 ], [ -1, %9 ]
  call void @llvm.lifetime.end.p0(i64 8, ptr nonnull %7) #13
  call void @llvm.lifetime.end.p0(i64 8, ptr nonnull %6) #13
  call void @llvm.lifetime.end.p0(i64 8, ptr nonnull %5) #13
  call void @llvm.lifetime.end.p0(i64 8, ptr nonnull %4) #13
  ret i32 %.0
}